target datalayout = "e-m:e-p270:32:32-p271:32:32-p272:64:64-i64:64-i128:128-f80:128-n8:16:32:64-S128"
target triple = "x86_64-pc-linux-gnu"

%struct._zend_refcounted_h = type { i32, %union.anon }
%union.anon = type { i32 }
%struct._zend_string = type { %struct._zend_refcounted_h, i64, i64, [1 x i8] }

; Function Attrs: nounwind uwtable
define internal ptr @escape_html(ptr noundef %0, i64 noundef %1) #1 {
  %3 = alloca ptr, align 8
  %4 = alloca i64, align 8
  %5 = alloca ptr, align 8
  store ptr %0, ptr %3, align 8, !tbaa !14
  store i64 %1, ptr %4, align 8, !tbaa !15
  call void @llvm.lifetime.start.p0(i64 8, ptr %5) #18
  %6 = load ptr, ptr %3, align 8, !tbaa !14
  %7 = load i64, ptr %4, align 8, !tbaa !15
  %8 = call ptr @php_escape_html_entities_ex(ptr noundef %6, i64 noundef %7, i32 noundef 0, i32 noundef 2, ptr noundef null, i1 noundef zeroext true, i1 noundef zeroext true)
  store ptr %8, ptr %5, align 8, !tbaa !54
  %9 = load ptr, ptr %5, align 8, !tbaa !54
  %10 = icmp ne ptr %9, null
  br i1 %10, label %11, label %16

11:                                               ; preds = %2
  %12 = load ptr, ptr %5, align 8, !tbaa !54
  %13 = getelementptr inbounds nuw %struct._zend_string, ptr %12, i32 0, i32 2
  %14 = load i64, ptr %13, align 8, !tbaa !60
  %15 = icmp eq i64 %14, 0
  br i1 %15, label %16, label %20

16:                                               ; preds = %11, %2
  %17 = load ptr, ptr %3, align 8, !tbaa !14
  %18 = load i64, ptr %4, align 8, !tbaa !15
  %19 = call ptr @php_escape_html_entities_ex(ptr noundef %17, i64 noundef %18, i32 noundef 0, i32 noundef 10, ptr noundef null, i1 noundef zeroext true, i1 noundef zeroext true)
  store ptr %19, ptr %5, align 8, !tbaa !54
  br label %20

20:                                               ; preds = %16, %11
  %21 = load ptr, ptr %5, align 8, !tbaa !54
  call void @llvm.lifetime.end.p0(i64 8, ptr %5) #18
  ret ptr %21
}