; Function Attrs: nounwind uwtable
define internal fastcc ptr @escape_html(ptr noundef %0, i64 noundef %1) unnamed_addr #2 {
  %3 = tail call ptr @php_escape_html_entities_ex(ptr noundef %0, i64 noundef %1, i32 noundef 0, i32 noundef 2, ptr noundef null, i1 noundef zeroext true, i1 noundef zeroext true) #28
  %.not = icmp eq ptr %3, null
  br i1 %.not, label %8, label %4

4:                                                ; preds = %2
  %5 = getelementptr inbounds nuw i8, ptr %3, i64 16
  %6 = load i64, ptr %5, align 8, !tbaa !52
  %7 = icmp eq i64 %6, 0
  br i1 %7, label %8, label %10

8:                                                ; preds = %4, %2
  %9 = tail call ptr @php_escape_html_entities_ex(ptr noundef %0, i64 noundef %1, i32 noundef 0, i32 noundef 10, ptr noundef null, i1 noundef zeroext true, i1 noundef zeroext true) #28
  br label %10

10:                                               ; preds = %8, %4
  %.0 = phi ptr [ %9, %8 ], [ %3, %4 ]
  ret ptr %.0
}